target datalayout = "e-m:e-p270:32:32-p271:32:32-p272:64:64-i64:64-i128:128-f80:128-n8:16:32:64-S128"
target triple = "x86_64-pc-linux-gnu"

%struct.CVodeMemRec = type { double, ptr, ptr, i32, i32, i32, double, double, ptr, i32, ptr, ptr, i32, ptr, i32, i32, double, double, ptr, i32, i32, i32, ptr, ptr, ptr, i32, i32, ptr, ptr, ptr, i32, double, i32, i32, double, ptr, ptr, i32, ptr, ptr, i32, i32, i32, double, ptr, ptr, [13 x ptr], ptr, ptr, ptr, ptr, ptr, [13 x ptr], ptr, ptr, ptr, ptr, [13 x ptr], ptr, ptr, ptr, ptr, ptr, i32, [13 x ptr], ptr, ptr, ptr, ptr, ptr, i32, double, i32, i32, i32, i32, i32, double, double, double, double, double, double, double, double, [14 x double], [6 x double], [13 x double], double, double, double, double, double, double, double, double, double, double, double, i32, ptr, i32, i64, i32, i32, i32, i32, i32, double, double, double, i64, i64, i64, i64, i64, i64, i64, i64, i64, ptr, i64, i64, ptr, i64, i64, i64, i64, i64, i64, i32, i64, i64, i64, i64, i64, i64, double, double, double, ptr, ptr, ptr, ptr, ptr, i32, i32, i64, double, double, double, i32, double, i32, i32, i32, i32, i32, i32, i32, i32, i32, i32, i32, i32, i32, i32, i32, i32, ptr, ptr, ptr, i32, [6 x [4 x double]], i32, i64, ptr, i32, ptr, ptr, double, double, double, ptr, ptr, ptr, double, double, i32, i32, i64, ptr, i32, i32, ptr, i32 }
%struct.CVDlsMemRec = type { i32, i64, i64, i64, i64, i32, ptr, ptr, ptr, ptr, ptr, ptr, ptr, i64, i64, i64, i64 }

@.str.2 = private unnamed_addr constant [27 x i8] c"Integrator memory is NULL.\00", align 1
@.str.3 = private unnamed_addr constant [30 x i8] c"Linear solver memory is NULL.\00", align 1
@.str.5 = private unnamed_addr constant [7 x i8] c"CVSDLS\00", align 1
@.str.6 = private unnamed_addr constant [18 x i8] c"CVDlsGetWorkSpace\00", align 1

; Function Attrs: nounwind uwtable
define i32 @CVDlsGetWorkSpace(ptr noundef %0, ptr noundef %1, ptr noundef %2) #0 {
  %4 = alloca i32, align 4
  %5 = alloca ptr, align 8
  %6 = alloca ptr, align 8
  %7 = alloca ptr, align 8
  %8 = alloca ptr, align 8
  %9 = alloca ptr, align 8
  %10 = alloca i32, align 4
  store ptr %0, ptr %5, align 8, !tbaa !3
  store ptr %1, ptr %6, align 8, !tbaa !28
  store ptr %2, ptr %7, align 8, !tbaa !28
  call void @llvm.lifetime.start.p0(i64 8, ptr %8) #5
  call void @llvm.lifetime.start.p0(i64 8, ptr %9) #5
  %11 = load ptr, ptr %5, align 8, !tbaa !3
  %12 = icmp eq ptr %11, null
  br i1 %12, label %13, label %14

13:                                               ; preds = %3
  call void (ptr, i32, ptr, ptr, ptr, ...) @cvProcessError(ptr noundef null, i32 noundef -1, ptr noundef @.str.5, ptr noundef @.str.6, ptr noundef @.str.2)
  store i32 -1, ptr %4, align 4
  store i32 1, ptr %10, align 4
  br label %74

14:                                               ; preds = %3
  %15 = load ptr, ptr %5, align 8, !tbaa !3
  store ptr %15, ptr %8, align 8, !tbaa !7
  %16 = load ptr, ptr %8, align 8, !tbaa !7
  %17 = getelementptr inbounds nuw %struct.CVodeMemRec, ptr %16, i32 0, i32 144
  %18 = load ptr, ptr %17, align 8, !tbaa !9
  %19 = icmp eq ptr %18, null
  br i1 %19, label %20, label %22

20:                                               ; preds = %14
  %21 = load ptr, ptr %8, align 8, !tbaa !7
  call void (ptr, i32, ptr, ptr, ptr, ...) @cvProcessError(ptr noundef %21, i32 noundef -2, ptr noundef @.str.5, ptr noundef @.str.6, ptr noundef @.str.3)
  store i32 -2, ptr %4, align 4
  store i32 1, ptr %10, align 4
  br label %74

22:                                               ; preds = %14
  %23 = load ptr, ptr %8, align 8, !tbaa !7
  %24 = getelementptr inbounds nuw %struct.CVodeMemRec, ptr %23, i32 0, i32 144
  %25 = load ptr, ptr %24, align 8, !tbaa !9
  store ptr %25, ptr %9, align 8, !tbaa !21
  %26 = load ptr, ptr %9, align 8, !tbaa !21
  %27 = getelementptr inbounds nuw %struct.CVDlsMemRec, ptr %26, i32 0, i32 0
  %28 = load i32, ptr %27, align 8, !tbaa !29
  %29 = icmp eq i32 %28, 1
  br i1 %29, label %30, label %44

30:                                               ; preds = %22
  %31 = load ptr, ptr %9, align 8, !tbaa !21
  %32 = getelementptr inbounds nuw %struct.CVDlsMemRec, ptr %31, i32 0, i32 1
  %33 = load i64, ptr %32, align 8, !tbaa !30
  %34 = mul nsw i64 2, %33
  %35 = load ptr, ptr %9, align 8, !tbaa !21
  %36 = getelementptr inbounds nuw %struct.CVDlsMemRec, ptr %35, i32 0, i32 1
  %37 = load i64, ptr %36, align 8, !tbaa !30
  %38 = mul nsw i64 %34, %37
  %39 = load ptr, ptr %6, align 8, !tbaa !28
  store i64 %38, ptr %39, align 8, !tbaa !31
  %40 = load ptr, ptr %9, align 8, !tbaa !21
  %41 = getelementptr inbounds nuw %struct.CVDlsMemRec, ptr %40, i32 0, i32 1
  %42 = load i64, ptr %41, align 8, !tbaa !30
  %43 = load ptr, ptr %7, align 8, !tbaa !28
  store i64 %42, ptr %43, align 8, !tbaa !31
  br label %73

44:                                               ; preds = %22
  %45 = load ptr, ptr %9, align 8, !tbaa !21
  %46 = getelementptr inbounds nuw %struct.CVDlsMemRec, ptr %45, i32 0, i32 0
  %47 = load i32, ptr %46, align 8, !tbaa !29
  %48 = icmp eq i32 %47, 2
  br i1 %48, label %49, label %72

49:                                               ; preds = %44
  %50 = load ptr, ptr %9, align 8, !tbaa !21
  %51 = getelementptr inbounds nuw %struct.CVDlsMemRec, ptr %50, i32 0, i32 1
  %52 = load i64, ptr %51, align 8, !tbaa !30
  %53 = load ptr, ptr %9, align 8, !tbaa !21
  %54 = getelementptr inbounds nuw %struct.CVDlsMemRec, ptr %53, i32 0, i32 4
  %55 = load i64, ptr %54, align 8, !tbaa !32
  %56 = load ptr, ptr %9, align 8, !tbaa !21
  %57 = getelementptr inbounds nuw %struct.CVDlsMemRec, ptr %56, i32 0, i32 3
  %58 = load i64, ptr %57, align 8, !tbaa !33
  %59 = add nsw i64 %55, %58
  %60 = load ptr, ptr %9, align 8, !tbaa !21
  %61 = getelementptr inbounds nuw %struct.CVDlsMemRec, ptr %60, i32 0, i32 2
  %62 = load i64, ptr %61, align 8, !tbaa !34
  %63 = mul nsw i64 2, %62
  %64 = add nsw i64 %59, %63
  %65 = add nsw i64 %64, 2
  %66 = mul nsw i64 %52, %65
  %67 = load ptr, ptr %6, align 8, !tbaa !28
  store i64 %66, ptr %67, align 8, !tbaa !31
  %68 = load ptr, ptr %9, align 8, !tbaa !21
  %69 = getelementptr inbounds nuw %struct.CVDlsMemRec, ptr %68, i32 0, i32 1
  %70 = load i64, ptr %69, align 8, !tbaa !30
  %71 = load ptr, ptr %7, align 8, !tbaa !28
  store i64 %70, ptr %71, align 8, !tbaa !31
  br label %72

72:                                               ; preds = %49, %44
  br label %73

73:                                               ; preds = %72, %30
  store i32 0, ptr %4, align 4
  store i32 1, ptr %10, align 4
  br label %74

74:                                               ; preds = %73, %20, %13
  call void @llvm.lifetime.end.p0(i64 8, ptr %9) #5
  call void @llvm.lifetime.end.p0(i64 8, ptr %8) #5
  %75 = load i32, ptr %4, align 4
  ret i32 %75
}