; Function Attrs: nounwind uwtable
define range(i32 -2, 1) i32 @CVDlsGetWorkSpace(ptr noundef %0, ptr noundef writeonly captures(none) %1, ptr noundef writeonly captures(none) %2) local_unnamed_addr #0 {
  %4 = icmp eq ptr %0, null
  br i1 %4, label %5, label %6

5:                                                ; preds = %3
  tail call void (ptr, i32, ptr, ptr, ptr, ...) @cvProcessError(ptr noundef null, i32 noundef -1, ptr noundef nonnull @.str.5, ptr noundef nonnull @.str.6, ptr noundef nonnull @.str.2) #6
  br label %34

6:                                                ; preds = %3
  %7 = getelementptr inbounds nuw i8, ptr %0, i64 1696
  %8 = load ptr, ptr %7, align 8, !tbaa !3
  %9 = icmp eq ptr %8, null
  br i1 %9, label %10, label %11

10:                                               ; preds = %6
  tail call void (ptr, i32, ptr, ptr, ptr, ...) @cvProcessError(ptr noundef nonnull %0, i32 noundef -2, ptr noundef nonnull @.str.5, ptr noundef nonnull @.str.6, ptr noundef nonnull @.str.3) #6
  br label %34

11:                                               ; preds = %6
  %12 = load i32, ptr %8, align 8, !tbaa !23
  switch i32 %12, label %34 [
    i32 1, label %13
    i32 2, label %19
  ]

13:                                               ; preds = %11
  %14 = getelementptr inbounds nuw i8, ptr %8, i64 8
  %15 = load i64, ptr %14, align 8, !tbaa !24
  %16 = shl nsw i64 %15, 1
  %17 = mul nsw i64 %16, %15
  store i64 %17, ptr %1, align 8, !tbaa !25
  %18 = load i64, ptr %14, align 8, !tbaa !24
  store i64 %18, ptr %2, align 8, !tbaa !25
  br label %34

19:                                               ; preds = %11
  %20 = getelementptr inbounds nuw i8, ptr %8, i64 8
  %21 = load i64, ptr %20, align 8, !tbaa !24
  %22 = getelementptr inbounds nuw i8, ptr %8, i64 32
  %23 = load i64, ptr %22, align 8, !tbaa !26
  %24 = getelementptr inbounds nuw i8, ptr %8, i64 24
  %25 = load i64, ptr %24, align 8, !tbaa !27
  %26 = getelementptr inbounds nuw i8, ptr %8, i64 16
  %27 = load i64, ptr %26, align 8, !tbaa !28
  %28 = shl nsw i64 %27, 1
  %29 = add i64 %23, 2
  %30 = add i64 %29, %25
  %31 = add i64 %30, %28
  %32 = mul nsw i64 %31, %21
  store i64 %32, ptr %1, align 8, !tbaa !25
  %33 = load i64, ptr %20, align 8, !tbaa !24
  store i64 %33, ptr %2, align 8, !tbaa !25
  br label %34

34:                                               ; preds = %13, %19, %11, %10, %5
  %.0 = phi i32 [ -1, %5 ], [ -2, %10 ], [ 0, %11 ], [ 0, %19 ], [ 0, %13 ]
  ret i32 %.0
}